target datalayout = "e-m:e-p270:32:32-p271:32:32-p272:64:64-i64:64-i128:128-f80:128-n8:16:32:64-S128"
target triple = "x86_64-pc-linux-gnu"

@H5P_CLS_FILE_CREATE_ID_g = external global i64, align 8
@H5_libinit_g = external global i8, align 1
@H5_libterm_g = external global i8, align 1
@.str.1 = private unnamed_addr constant [101 x i8] c"generated/home/dtcxzyw/WorkSpace/Projects/compilers/llvm-opt-benchmark/bench/hdf5/hdf5/src/H5Pfcpl.c\00", align 1
@H5E_FUNC_g = external global i64, align 8
@H5E_CANTINIT_g = external global i64, align 8
@.str.2 = private unnamed_addr constant [30 x i8] c"library initialization failed\00", align 1
@H5E_CANTSET_g = external global i64, align 8
@.str.3 = private unnamed_addr constant [22 x i8] c"can't set API context\00", align 1
@H5E_ARGS_g = external global i64, align 8
@H5E_BADVALUE_g = external global i64, align 8
@H5E_ID_g = external global i64, align 8
@H5E_BADID_g = external global i64, align 8
@.str.6 = private unnamed_addr constant [25 x i8] c"can't find object for ID\00", align 1
@H5E_PLIST_g = external global i64, align 8
@H5E_CANTGET_g = external global i64, align 8
@H5E_BADRANGE_g = external global i64, align 8
@__func__.H5Pset_shared_mesg_phase_change = private unnamed_addr constant [32 x i8] c"H5Pset_shared_mesg_phase_change\00", align 1
@.str.41 = private unnamed_addr constant [56 x i8] c"minimum B-tree value is greater than maximum list value\00", align 1
@.str.42 = private unnamed_addr constant [55 x i8] c"max list value is larger than H5O_SHMESG_MAX_LIST_SIZE\00", align 1
@.str.43 = private unnamed_addr constant [56 x i8] c"min btree value is larger than H5O_SHMESG_MAX_LIST_SIZE\00", align 1
@.str.44 = private unnamed_addr constant [15 x i8] c"shmsg_list_max\00", align 1
@.str.45 = private unnamed_addr constant [40 x i8] c"can't set list maximum in property list\00", align 1
@.str.46 = private unnamed_addr constant [16 x i8] c"shmsg_btree_min\00", align 1
@.str.47 = private unnamed_addr constant [42 x i8] c"can't set B-tree minimum in property list\00", align 1

; Function Attrs: nounwind uwtable
define i32 @H5Pset_shared_mesg_phase_change(i64 noundef %0, i32 noundef %1, i32 noundef %2) #0 {
  %4 = alloca i64, align 8
  %5 = alloca i32, align 4
  %6 = alloca i32, align 4
  %7 = alloca ptr, align 8
  %8 = alloca i32, align 4
  %9 = alloca i8, align 1
  %10 = alloca i8, align 1
  store i64 %0, ptr %4, align 8
  store i32 %1, ptr %5, align 4
  store i32 %2, ptr %6, align 4
  store i32 0, ptr %8, align 4
  store i8 0, ptr %9, align 1
  store i8 0, ptr %10, align 1
  %11 = load i8, ptr @H5_libinit_g, align 1
  %12 = trunc i8 %11 to i1
  br i1 %12, label %17, label %13

13:                                               ; preds = %3
  %14 = load i8, ptr @H5_libterm_g, align 1
  %15 = trunc i8 %14 to i1
  %16 = xor i1 %15, true
  br label %17

17:                                               ; preds = %13, %3
  %18 = phi i1 [ false, %3 ], [ %16, %13 ]
  %19 = xor i1 %18, true
  %20 = xor i1 %19, true
  %21 = zext i1 %20 to i32
  %22 = sext i32 %21 to i64
  %23 = icmp ne i64 %22, 0
  br i1 %23, label %24, label %48

24:                                               ; preds = %17
  %25 = call i32 @H5_init_library()
  %26 = icmp slt i32 %25, 0
  %27 = xor i1 %26, true
  %28 = xor i1 %27, true
  %29 = zext i1 %28 to i32
  %30 = sext i32 %29 to i64
  %31 = icmp ne i64 %30, 0
  br i1 %31, label %32, label %47

32:                                               ; preds = %24
  br label %33

33:                                               ; preds = %32
  br label %34

34:                                               ; preds = %33
  br label %35

35:                                               ; preds = %34
  %36 = load i64, ptr @H5E_FUNC_g, align 8
  %37 = load i64, ptr @H5E_CANTINIT_g, align 8
  %38 = call i32 (ptr, ptr, i32, i64, i64, ptr, ...) @H5E_printf_stack(ptr noundef @.str.1, ptr noundef @__func__.H5Pset_shared_mesg_phase_change, i32 noundef 1100, i64 noundef %36, i64 noundef %37, ptr noundef @.str.2)
  br label %39

39:                                               ; preds = %35
  store i8 1, ptr %10, align 1
  %40 = load i8, ptr %10, align 1
  %41 = trunc i8 %40 to i1
  %42 = zext i1 %41 to i8
  store i8 %42, ptr %10, align 1
  br label %43

43:                                               ; preds = %39
  br label %44

44:                                               ; preds = %43
  store i32 -1, ptr %8, align 4
  br label %192

45:                                               ; No predecessors!
  br label %46

46:                                               ; preds = %45
  br label %47

47:                                               ; preds = %46, %24
  br label %48

48:                                               ; preds = %47, %17
  %49 = call i32 @H5CX_push()
  %50 = icmp slt i32 %49, 0
  %51 = xor i1 %50, true
  %52 = xor i1 %51, true
  %53 = zext i1 %52 to i32
  %54 = sext i32 %53 to i64
  %55 = icmp ne i64 %54, 0
  br i1 %55, label %56, label %71

56:                                               ; preds = %48
  br label %57

57:                                               ; preds = %56
  br label %58

58:                                               ; preds = %57
  br label %59

59:                                               ; preds = %58
  %60 = load i64, ptr @H5E_FUNC_g, align 8
  %61 = load i64, ptr @H5E_CANTSET_g, align 8
  %62 = call i32 (ptr, ptr, i32, i64, i64, ptr, ...) @H5E_printf_stack(ptr noundef @.str.1, ptr noundef @__func__.H5Pset_shared_mesg_phase_change, i32 noundef 1100, i64 noundef %60, i64 noundef %61, ptr noundef @.str.3)
  br label %63

63:                                               ; preds = %59
  store i8 1, ptr %10, align 1
  %64 = load i8, ptr %10, align 1
  %65 = trunc i8 %64 to i1
  %66 = zext i1 %65 to i8
  store i8 %66, ptr %10, align 1
  br label %67

67:                                               ; preds = %63
  br label %68

68:                                               ; preds = %67
  store i32 -1, ptr %8, align 4
  br label %192

69:                                               ; No predecessors!
  br label %70

70:                                               ; preds = %69
  br label %72

71:                                               ; preds = %48
  store i8 1, ptr %9, align 1
  br label %72

72:                                               ; preds = %71, %70
  %73 = call i32 @H5E_clear_stack()
  %74 = load i32, ptr %5, align 4
  %75 = add i32 %74, 1
  %76 = load i32, ptr %6, align 4
  %77 = icmp ult i32 %75, %76
  br i1 %77, label %78, label %93

78:                                               ; preds = %72
  br label %79

79:                                               ; preds = %78
  br label %80

80:                                               ; preds = %79
  br label %81

81:                                               ; preds = %80
  %82 = load i64, ptr @H5E_ARGS_g, align 8
  %83 = load i64, ptr @H5E_BADVALUE_g, align 8
  %84 = call i32 (ptr, ptr, i32, i64, i64, ptr, ...) @H5E_printf_stack(ptr noundef @.str.1, ptr noundef @__func__.H5Pset_shared_mesg_phase_change, i32 noundef 1108, i64 noundef %82, i64 noundef %83, ptr noundef @.str.41)
  br label %85

85:                                               ; preds = %81
  store i8 1, ptr %10, align 1
  %86 = load i8, ptr %10, align 1
  %87 = trunc i8 %86 to i1
  %88 = zext i1 %87 to i8
  store i8 %88, ptr %10, align 1
  br label %89

89:                                               ; preds = %85
  br label %90

90:                                               ; preds = %89
  store i32 -1, ptr %8, align 4
  br label %192

91:                                               ; No predecessors!
  br label %92

92:                                               ; preds = %91
  br label %93

93:                                               ; preds = %92, %72
  %94 = load i32, ptr %5, align 4
  %95 = icmp ugt i32 %94, 5000
  br i1 %95, label %96, label %111

96:                                               ; preds = %93
  br label %97

97:                                               ; preds = %96
  br label %98

98:                                               ; preds = %97
  br label %99

99:                                               ; preds = %98
  %100 = load i64, ptr @H5E_ARGS_g, align 8
  %101 = load i64, ptr @H5E_BADRANGE_g, align 8
  %102 = call i32 (ptr, ptr, i32, i64, i64, ptr, ...) @H5E_printf_stack(ptr noundef @.str.1, ptr noundef @__func__.H5Pset_shared_mesg_phase_change, i32 noundef 1110, i64 noundef %100, i64 noundef %101, ptr noundef @.str.42)
  br label %103

103:                                              ; preds = %99
  store i8 1, ptr %10, align 1
  %104 = load i8, ptr %10, align 1
  %105 = trunc i8 %104 to i1
  %106 = zext i1 %105 to i8
  store i8 %106, ptr %10, align 1
  br label %107

107:                                              ; preds = %103
  br label %108

108:                                              ; preds = %107
  store i32 -1, ptr %8, align 4
  br label %192

109:                                              ; No predecessors!
  br label %110

110:                                              ; preds = %109
  br label %111

111:                                              ; preds = %110, %93
  %112 = load i32, ptr %6, align 4
  %113 = icmp ugt i32 %112, 5000
  br i1 %113, label %114, label %129

114:                                              ; preds = %111
  br label %115

115:                                              ; preds = %114
  br label %116

116:                                              ; preds = %115
  br label %117

117:                                              ; preds = %116
  %118 = load i64, ptr @H5E_ARGS_g, align 8
  %119 = load i64, ptr @H5E_BADRANGE_g, align 8
  %120 = call i32 (ptr, ptr, i32, i64, i64, ptr, ...) @H5E_printf_stack(ptr noundef @.str.1, ptr noundef @__func__.H5Pset_shared_mesg_phase_change, i32 noundef 1112, i64 noundef %118, i64 noundef %119, ptr noundef @.str.43)
  br label %121

121:                                              ; preds = %117
  store i8 1, ptr %10, align 1
  %122 = load i8, ptr %10, align 1
  %123 = trunc i8 %122 to i1
  %124 = zext i1 %123 to i8
  store i8 %124, ptr %10, align 1
  br label %125

125:                                              ; preds = %121
  br label %126

126:                                              ; preds = %125
  store i32 -1, ptr %8, align 4
  br label %192

127:                                              ; No predecessors!
  br label %128

128:                                              ; preds = %127
  br label %129

129:                                              ; preds = %128, %111
  %130 = load i32, ptr %5, align 4
  %131 = icmp eq i32 %130, 0
  br i1 %131, label %132, label %133

132:                                              ; preds = %129
  store i32 0, ptr %6, align 4
  br label %133

133:                                              ; preds = %132, %129
  %134 = load i64, ptr %4, align 8
  %135 = load i64, ptr @H5P_CLS_FILE_CREATE_ID_g, align 8
  %136 = call ptr @H5P_object_verify(i64 noundef %134, i64 noundef %135)
  store ptr %136, ptr %7, align 8
  %137 = icmp eq ptr null, %136
  br i1 %137, label %138, label %153

138:                                              ; preds = %133
  br label %139

139:                                              ; preds = %138
  br label %140

140:                                              ; preds = %139
  br label %141

141:                                              ; preds = %140
  %142 = load i64, ptr @H5E_ID_g, align 8
  %143 = load i64, ptr @H5E_BADID_g, align 8
  %144 = call i32 (ptr, ptr, i32, i64, i64, ptr, ...) @H5E_printf_stack(ptr noundef @.str.1, ptr noundef @__func__.H5Pset_shared_mesg_phase_change, i32 noundef 1122, i64 noundef %142, i64 noundef %143, ptr noundef @.str.6)
  br label %145

145:                                              ; preds = %141
  store i8 1, ptr %10, align 1
  %146 = load i8, ptr %10, align 1
  %147 = trunc i8 %146 to i1
  %148 = zext i1 %147 to i8
  store i8 %148, ptr %10, align 1
  br label %149

149:                                              ; preds = %145
  br label %150

150:                                              ; preds = %149
  store i32 -1, ptr %8, align 4
  br label %192

151:                                              ; No predecessors!
  br label %152

152:                                              ; preds = %151
  br label %153

153:                                              ; preds = %152, %133
  %154 = load ptr, ptr %7, align 8
  %155 = call i32 @H5P_set(ptr noundef %154, ptr noundef @.str.44, ptr noundef %5)
  %156 = icmp slt i32 %155, 0
  br i1 %156, label %157, label %172

157:                                              ; preds = %153
  br label %158

158:                                              ; preds = %157
  br label %159

159:                                              ; preds = %158
  br label %160

160:                                              ; preds = %159
  %161 = load i64, ptr @H5E_PLIST_g, align 8
  %162 = load i64, ptr @H5E_CANTGET_g, align 8
  %163 = call i32 (ptr, ptr, i32, i64, i64, ptr, ...) @H5E_printf_stack(ptr noundef @.str.1, ptr noundef @__func__.H5Pset_shared_mesg_phase_change, i32 noundef 1125, i64 noundef %161, i64 noundef %162, ptr noundef @.str.45)
  br label %164

164:                                              ; preds = %160
  store i8 1, ptr %10, align 1
  %165 = load i8, ptr %10, align 1
  %166 = trunc i8 %165 to i1
  %167 = zext i1 %166 to i8
  store i8 %167, ptr %10, align 1
  br label %168

168:                                              ; preds = %164
  br label %169

169:                                              ; preds = %168
  store i32 -1, ptr %8, align 4
  br label %192

170:                                              ; No predecessors!
  br label %171

171:                                              ; preds = %170
  br label %172

172:                                              ; preds = %171, %153
  %173 = load ptr, ptr %7, align 8
  %174 = call i32 @H5P_set(ptr noundef %173, ptr noundef @.str.46, ptr noundef %6)
  %175 = icmp slt i32 %174, 0
  br i1 %175, label %176, label %191

176:                                              ; preds = %172
  br label %177

177:                                              ; preds = %176
  br label %178

178:                                              ; preds = %177
  br label %179

179:                                              ; preds = %178
  %180 = load i64, ptr @H5E_PLIST_g, align 8
  %181 = load i64, ptr @H5E_CANTGET_g, align 8
  %182 = call i32 (ptr, ptr, i32, i64, i64, ptr, ...) @H5E_printf_stack(ptr noundef @.str.1, ptr noundef @__func__.H5Pset_shared_mesg_phase_change, i32 noundef 1127, i64 noundef %180, i64 noundef %181, ptr noundef @.str.47)
  br label %183

183:                                              ; preds = %179
  store i8 1, ptr %10, align 1
  %184 = load i8, ptr %10, align 1
  %185 = trunc i8 %184 to i1
  %186 = zext i1 %185 to i8
  store i8 %186, ptr %10, align 1
  br label %187

187:                                              ; preds = %183
  br label %188

188:                                              ; preds = %187
  store i32 -1, ptr %8, align 4
  br label %192

189:                                              ; No predecessors!
  br label %190

190:                                              ; preds = %189
  br label %191

191:                                              ; preds = %190, %172
  br label %192

192:                                              ; preds = %191, %188, %169, %150, %126, %108, %90, %68, %44
  %193 = load i8, ptr %9, align 1
  %194 = trunc i8 %193 to i1
  %195 = xor i1 %194, true
  %196 = xor i1 %195, true
  %197 = zext i1 %196 to i32
  %198 = sext i32 %197 to i64
  %199 = icmp ne i64 %198, 0
  br i1 %199, label %200, label %202

200:                                              ; preds = %192
  %201 = call i32 @H5CX_pop(i1 noundef zeroext true)
  store i8 0, ptr %9, align 1
  br label %202

202:                                              ; preds = %200, %192
  %203 = load i8, ptr %10, align 1
  %204 = trunc i8 %203 to i1
  %205 = xor i1 %204, true
  %206 = xor i1 %205, true
  %207 = zext i1 %206 to i32
  %208 = sext i32 %207 to i64
  %209 = icmp ne i64 %208, 0
  br i1 %209, label %210, label %212

210:                                              ; preds = %202
  %211 = call i32 @H5E_dump_api_stack()
  br label %212

212:                                              ; preds = %210, %202
  %213 = load i32, ptr %8, align 4
  ret i32 %213
}