; Function Attrs: nounwind uwtable
define range(i32 -1, 1) i32 @H5Pset_shared_mesg_phase_change(i64 noundef %0, i32 noundef %1, i32 noundef %2) local_unnamed_addr #0 {
  %4 = alloca i32, align 4
  %5 = alloca i32, align 4
  store i32 %1, ptr %4, align 4
  store i32 %2, ptr %5, align 4
  %6 = load i8, ptr @H5_libinit_g, align 1
  %7 = trunc i8 %6 to i1
  %8 = load i8, ptr @H5_libterm_g, align 1
  %9 = trunc i8 %8 to i1
  %10 = select i1 %7, i1 true, i1 %9
  br i1 %10, label %18, label %11

11:                                               ; preds = %3
  %12 = tail call i32 @H5_init_library() #6
  %13 = icmp slt i32 %12, 0
  br i1 %13, label %14, label %18

14:                                               ; preds = %11
  %15 = load i64, ptr @H5E_FUNC_g, align 8
  %16 = load i64, ptr @H5E_CANTINIT_g, align 8
  %17 = tail call i32 (ptr, ptr, i32, i64, i64, ptr, ...) @H5E_printf_stack(ptr noundef nonnull @.str.1, ptr noundef nonnull @__func__.H5Pset_shared_mesg_phase_change, i32 noundef 1100, i64 noundef %15, i64 noundef %16, ptr noundef nonnull @.str.2) #6
  br label %.thread26

18:                                               ; preds = %11, %3
  %19 = tail call i32 @H5CX_push() #6
  %20 = icmp slt i32 %19, 0
  br i1 %20, label %21, label %25

21:                                               ; preds = %18
  %22 = load i64, ptr @H5E_FUNC_g, align 8
  %23 = load i64, ptr @H5E_CANTSET_g, align 8
  %24 = tail call i32 (ptr, ptr, i32, i64, i64, ptr, ...) @H5E_printf_stack(ptr noundef nonnull @.str.1, ptr noundef nonnull @__func__.H5Pset_shared_mesg_phase_change, i32 noundef 1100, i64 noundef %22, i64 noundef %23, ptr noundef nonnull @.str.3) #6
  br label %.thread26

25:                                               ; preds = %18
  %26 = tail call i32 @H5E_clear_stack() #6
  %27 = add i32 %1, 1
  %28 = icmp ult i32 %27, %2
  br i1 %28, label %29, label %33

29:                                               ; preds = %25
  %30 = load i64, ptr @H5E_ARGS_g, align 8
  %31 = load i64, ptr @H5E_BADVALUE_g, align 8
  %32 = tail call i32 (ptr, ptr, i32, i64, i64, ptr, ...) @H5E_printf_stack(ptr noundef nonnull @.str.1, ptr noundef nonnull @__func__.H5Pset_shared_mesg_phase_change, i32 noundef 1108, i64 noundef %30, i64 noundef %31, ptr noundef nonnull @.str.41) #6
  br label %.thread32

33:                                               ; preds = %25
  %34 = icmp ugt i32 %1, 5000
  br i1 %34, label %35, label %39

35:                                               ; preds = %33
  %36 = load i64, ptr @H5E_ARGS_g, align 8
  %37 = load i64, ptr @H5E_BADRANGE_g, align 8
  %38 = tail call i32 (ptr, ptr, i32, i64, i64, ptr, ...) @H5E_printf_stack(ptr noundef nonnull @.str.1, ptr noundef nonnull @__func__.H5Pset_shared_mesg_phase_change, i32 noundef 1110, i64 noundef %36, i64 noundef %37, ptr noundef nonnull @.str.42) #6
  br label %.thread32

39:                                               ; preds = %33
  %40 = icmp ugt i32 %2, 5000
  br i1 %40, label %41, label %45

41:                                               ; preds = %39
  %42 = load i64, ptr @H5E_ARGS_g, align 8
  %43 = load i64, ptr @H5E_BADRANGE_g, align 8
  %44 = tail call i32 (ptr, ptr, i32, i64, i64, ptr, ...) @H5E_printf_stack(ptr noundef nonnull @.str.1, ptr noundef nonnull @__func__.H5Pset_shared_mesg_phase_change, i32 noundef 1112, i64 noundef %42, i64 noundef %43, ptr noundef nonnull @.str.43) #6
  br label %.thread32

45:                                               ; preds = %39
  %46 = icmp eq i32 %1, 0
  br i1 %46, label %47, label %48

47:                                               ; preds = %45
  store i32 0, ptr %5, align 4
  br label %48

48:                                               ; preds = %47, %45
  %49 = load i64, ptr @H5P_CLS_FILE_CREATE_ID_g, align 8
  %50 = tail call ptr @H5P_object_verify(i64 noundef %0, i64 noundef %49) #6
  %51 = icmp eq ptr %50, null
  br i1 %51, label %52, label %56

52:                                               ; preds = %48
  %53 = load i64, ptr @H5E_ID_g, align 8
  %54 = load i64, ptr @H5E_BADID_g, align 8
  %55 = tail call i32 (ptr, ptr, i32, i64, i64, ptr, ...) @H5E_printf_stack(ptr noundef nonnull @.str.1, ptr noundef nonnull @__func__.H5Pset_shared_mesg_phase_change, i32 noundef 1122, i64 noundef %53, i64 noundef %54, ptr noundef nonnull @.str.6) #6
  br label %.thread32

56:                                               ; preds = %48
  %57 = call i32 @H5P_set(ptr noundef nonnull %50, ptr noundef nonnull @.str.44, ptr noundef nonnull %4) #6
  %58 = icmp slt i32 %57, 0
  br i1 %58, label %59, label %63

59:                                               ; preds = %56
  %60 = load i64, ptr @H5E_PLIST_g, align 8
  %61 = load i64, ptr @H5E_CANTGET_g, align 8
  %62 = call i32 (ptr, ptr, i32, i64, i64, ptr, ...) @H5E_printf_stack(ptr noundef nonnull @.str.1, ptr noundef nonnull @__func__.H5Pset_shared_mesg_phase_change, i32 noundef 1125, i64 noundef %60, i64 noundef %61, ptr noundef nonnull @.str.45) #6
  br label %.thread32

63:                                               ; preds = %56
  %64 = call i32 @H5P_set(ptr noundef nonnull %50, ptr noundef nonnull @.str.46, ptr noundef nonnull %5) #6
  %65 = icmp slt i32 %64, 0
  br i1 %65, label %66, label %71

66:                                               ; preds = %63
  %67 = load i64, ptr @H5E_PLIST_g, align 8
  %68 = load i64, ptr @H5E_CANTGET_g, align 8
  %69 = call i32 (ptr, ptr, i32, i64, i64, ptr, ...) @H5E_printf_stack(ptr noundef nonnull @.str.1, ptr noundef nonnull @__func__.H5Pset_shared_mesg_phase_change, i32 noundef 1127, i64 noundef %67, i64 noundef %68, ptr noundef nonnull @.str.47) #6
  br label %.thread32

.thread32:                                        ; preds = %66, %59, %52, %41, %35, %29
  %70 = call i32 @H5CX_pop(i1 noundef zeroext true) #6
  br label %.thread26

71:                                               ; preds = %63
  %72 = call i32 @H5CX_pop(i1 noundef zeroext true) #6
  br label %74

.thread26:                                        ; preds = %21, %14, %.thread32
  %73 = call i32 @H5E_dump_api_stack() #6
  br label %74

74:                                               ; preds = %71, %.thread26
  %.0142129 = phi i32 [ -1, %.thread26 ], [ 0, %71 ]
  ret i32 %.0142129
}